target datalayout = "e-m:e-p270:32:32-p271:32:32-p272:64:64-i64:64-i128:128-f80:128-n8:16:32:64-S128"
target triple = "x86_64-unknown-linux-gnu"

; Function Attrs: nounwind sspstrong uwtable
define internal i32 @tpm_emulator_startup_tpm(ptr noundef %tb, i64 noundef %buffersize) #0 {
entry:
  %retval = alloca i32, align 4
  %tb.addr = alloca ptr, align 8
  %buffersize.addr = alloca i64, align 8
  store ptr %tb, ptr %tb.addr, align 8
  store i64 %buffersize, ptr %buffersize.addr, align 8
  %call = call zeroext i1 @runstate_check(i32 noundef 1)
  br i1 %call, label %if.then, label %if.end3

if.then:                                          ; preds = %entry
  %0 = load i64, ptr %buffersize.addr, align 8
  %cmp = icmp ne i64 %0, 0
  br i1 %cmp, label %if.then1, label %if.end

if.then1:                                         ; preds = %if.then
  %1 = load ptr, ptr %tb.addr, align 8
  %2 = load i64, ptr %buffersize.addr, align 8
  %call2 = call i32 @tpm_emulator_set_buffer_size(ptr noundef %1, i64 noundef %2, ptr noundef null)
  store i32 %call2, ptr %retval, align 4
  br label %return

if.end:                                           ; preds = %if.then
  store i32 0, ptr %retval, align 4
  br label %return

if.end3:                                          ; preds = %entry
  %3 = load ptr, ptr %tb.addr, align 8
  %4 = load i64, ptr %buffersize.addr, align 8
  %call4 = call i32 @tpm_emulator_startup_tpm_resume(ptr noundef %3, i64 noundef %4, i1 noundef zeroext false)
  store i32 %call4, ptr %retval, align 4
  br label %return

return:                                           ; preds = %if.end3, %if.end, %if.then1
  %5 = load i32, ptr %retval, align 4
  ret i32 %5
}