; Function Attrs: nounwind sspstrong uwtable
define internal range(i32 -1, 1) i32 @tpm_emulator_startup_tpm(ptr noundef %tb, i64 noundef %buffersize) #0 {
entry:
  %call = tail call zeroext i1 @runstate_check(i32 noundef 1) #12
  br i1 %call, label %if.then, label %if.end3

if.then:                                          ; preds = %entry
  %cmp.not = icmp eq i64 %buffersize, 0
  br i1 %cmp.not, label %return, label %if.then1

if.then1:                                         ; preds = %if.then
  %call2 = tail call fastcc i32 @tpm_emulator_set_buffer_size(ptr noundef %tb, i64 noundef %buffersize, ptr noundef null)
  br label %return

if.end3:                                          ; preds = %entry
  %call4 = tail call fastcc i32 @tpm_emulator_startup_tpm_resume(ptr noundef %tb, i64 noundef %buffersize, i1 noundef zeroext false)
  br label %return

return:                                           ; preds = %if.then, %if.end3, %if.then1
  %retval.0 = phi i32 [ %call2, %if.then1 ], [ %call4, %if.end3 ], [ 0, %if.then ]
  ret i32 %retval.0
}